; Function Attrs: mustprogress nofree norecurse nosync nounwind willreturn memory(argmem: readwrite) uwtable
define void @_ZN17grpc_event_engine12experimental24PosixEnginePollerManagerC2ESt10shared_ptrINS0_16PosixEventPollerEE(ptr nocapture noundef nonnull writeonly align 8 dereferenceable(49) %this, ptr nocapture noundef %poller) unnamed_addr #11 align 2 {
entry:
  store ptr getelementptr inbounds ({ [6 x ptr] }, ptr @_ZTVN17grpc_event_engine12experimental24PosixEnginePollerManagerE, i64 0, i32 0, i64 2), ptr %this, align 8
  %poller_ = getelementptr inbounds i8, ptr %this, i64 8
  %0 = load ptr, ptr %poller, align 8
  store ptr %0, ptr %poller_, align 8
  %_M_refcount.i.i = getelementptr inbounds i8, ptr %this, i64 16
  store ptr null, ptr %_M_refcount.i.i, align 8
  %_M_refcount4.i.i = getelementptr inbounds i8, ptr %poller, i64 8
  %1 = load ptr, ptr %_M_refcount4.i.i, align 8
  store ptr null, ptr %_M_refcount4.i.i, align 8
  store ptr %1, ptr %_M_refcount.i.i, align 8
  store ptr null, ptr %poller, align 8
  %poller_state_ = getelementptr inbounds i8, ptr %this, i64 24
  store i32 0, ptr %poller_state_, align 8
  %executor_ = getelementptr inbounds i8, ptr %this, i64 32
  tail call void @llvm.memset.p0.i64(ptr noundef nonnull align 8 dereferenceable(17) %executor_, i8 0, i64 17, i1 false)
  ret void
}